target datalayout = "e-m:e-p270:32:32-p271:32:32-p272:64:64-i64:64-i128:128-f80:128-n8:16:32:64-S128"
target triple = "x86_64-pc-linux-gnu"

; Function Attrs: mustprogress uwtable
define void @_ZN6icu_7710CECalendar6jdToCEEiiRiS1_S1_R10UErrorCode(i32 noundef %0, i32 noundef %1, ptr noundef nonnull align 4 dereferenceable(4) %2, ptr noundef nonnull align 4 dereferenceable(4) %3, ptr noundef nonnull align 4 dereferenceable(4) %4, ptr noundef nonnull align 4 dereferenceable(4) %5) #0 align 2 {
  %7 = alloca i32, align 4
  %8 = alloca i32, align 4
  %9 = alloca ptr, align 8
  %10 = alloca ptr, align 8
  %11 = alloca ptr, align 8
  %12 = alloca ptr, align 8
  %13 = alloca i32, align 4
  %14 = alloca i32, align 4
  %15 = alloca i32, align 4
  %16 = alloca i32, align 4
  store i32 %0, ptr %7, align 4, !tbaa !13
  store i32 %1, ptr %8, align 4, !tbaa !13
  store ptr %2, ptr %9, align 8, !tbaa !22
  store ptr %3, ptr %10, align 8, !tbaa !22
  store ptr %4, ptr %11, align 8, !tbaa !22
  store ptr %5, ptr %12, align 8, !tbaa !10
  call void @llvm.lifetime.start.p0(i64 4, ptr %13) #8
  call void @llvm.lifetime.start.p0(i64 4, ptr %14) #8
  %17 = load i32, ptr %7, align 4, !tbaa !13
  %18 = load i32, ptr %8, align 4, !tbaa !13
  %19 = sub nsw i32 0, %18
  %20 = call signext i8 @uprv_add32_overflow_77(i32 noundef %17, i32 noundef %19, ptr noundef %7)
  %21 = icmp ne i8 %20, 0
  br i1 %21, label %22, label %24

22:                                               ; preds = %6
  %23 = load ptr, ptr %12, align 8, !tbaa !10
  store i32 1, ptr %23, align 4, !tbaa !24
  store i32 1, ptr %15, align 4
  br label %51

24:                                               ; preds = %6
  %25 = load i32, ptr %7, align 4, !tbaa !13
  %26 = call noundef i32 @_ZN6icu_779ClockMath11floorDivideEiiPi(i32 noundef %25, i32 noundef 1461, ptr noundef %14)
  store i32 %26, ptr %13, align 4, !tbaa !13
  %27 = load i32, ptr %13, align 4, !tbaa !13
  %28 = mul nsw i32 4, %27
  %29 = load i32, ptr %14, align 4, !tbaa !13
  %30 = sdiv i32 %29, 365
  %31 = load i32, ptr %14, align 4, !tbaa !13
  %32 = sdiv i32 %31, 1460
  %33 = sub nsw i32 %30, %32
  %34 = add nsw i32 %28, %33
  %35 = load ptr, ptr %9, align 8, !tbaa !22
  store i32 %34, ptr %35, align 4, !tbaa !13
  call void @llvm.lifetime.start.p0(i64 4, ptr %16) #8
  %36 = load i32, ptr %14, align 4, !tbaa !13
  %37 = icmp eq i32 %36, 1460
  br i1 %37, label %38, label %39

38:                                               ; preds = %24
  br label %42

39:                                               ; preds = %24
  %40 = load i32, ptr %14, align 4, !tbaa !13
  %41 = srem i32 %40, 365
  br label %42

42:                                               ; preds = %39, %38
  %43 = phi i32 [ 365, %38 ], [ %41, %39 ]
  store i32 %43, ptr %16, align 4, !tbaa !13
  %44 = load i32, ptr %16, align 4, !tbaa !13
  %45 = sdiv i32 %44, 30
  %46 = load ptr, ptr %10, align 8, !tbaa !22
  store i32 %45, ptr %46, align 4, !tbaa !13
  %47 = load i32, ptr %16, align 4, !tbaa !13
  %48 = srem i32 %47, 30
  %49 = add nsw i32 %48, 1
  %50 = load ptr, ptr %11, align 8, !tbaa !22
  store i32 %49, ptr %50, align 4, !tbaa !13
  call void @llvm.lifetime.end.p0(i64 4, ptr %16) #8
  store i32 0, ptr %15, align 4
  br label %51

51:                                               ; preds = %42, %22
  call void @llvm.lifetime.end.p0(i64 4, ptr %14) #8
  call void @llvm.lifetime.end.p0(i64 4, ptr %13) #8
  %52 = load i32, ptr %15, align 4
  switch i32 %52, label %54 [
    i32 0, label %53
    i32 1, label %53
  ]

53:                                               ; preds = %51, %51
  ret void

54:                                               ; preds = %51
  unreachable
}