; Function Attrs: mustprogress uwtable
define void @_ZN6icu_7710CECalendar6jdToCEEiiRiS1_S1_R10UErrorCode(i32 noundef %0, i32 noundef %1, ptr noundef nonnull writeonly align 4 captures(none) dereferenceable(4) %2, ptr noundef nonnull writeonly align 4 captures(none) dereferenceable(4) %3, ptr noundef nonnull writeonly align 4 captures(none) dereferenceable(4) %4, ptr noundef nonnull writeonly align 4 captures(none) dereferenceable(4) %5) local_unnamed_addr #0 align 2 {
  %7 = alloca i32, align 4
  %8 = alloca i32, align 4
  store i32 %0, ptr %7, align 4, !tbaa !6
  call void @llvm.lifetime.start.p0(i64 4, ptr nonnull %8) #9
  %9 = sub nsw i32 0, %1
  %10 = call signext i8 @uprv_add32_overflow_77(i32 noundef %0, i32 noundef %9, ptr noundef nonnull %7)
  %.not = icmp eq i8 %10, 0
  br i1 %.not, label %12, label %11

11:                                               ; preds = %6
  store i32 1, ptr %5, align 4, !tbaa !9
  br label %26

12:                                               ; preds = %6
  %13 = load i32, ptr %7, align 4, !tbaa !6
  %14 = call noundef i32 @_ZN6icu_779ClockMath11floorDivideEiiPi(i32 noundef %13, i32 noundef 1461, ptr noundef nonnull %8)
  %15 = shl nsw i32 %14, 2
  %16 = load i32, ptr %8, align 4, !tbaa !6
  %17 = sdiv i32 %16, 365
  %.neg = sdiv i32 %16, -1460
  %18 = add i32 %17, %15
  %19 = add i32 %18, %.neg
  store i32 %19, ptr %2, align 4, !tbaa !6
  %20 = icmp eq i32 %16, 1460
  %21 = srem i32 %16, 365
  %22 = trunc nsw i32 %21 to i16
  %.lhs.trunc = select i1 %20, i16 365, i16 %22
  %23 = sdiv i16 %.lhs.trunc, 30
  %.sext = sext i16 %23 to i32
  store i32 %.sext, ptr %3, align 4, !tbaa !6
  %24 = srem i16 %.lhs.trunc, 30
  %narrow = add nsw i16 %24, 1
  %25 = sext i16 %narrow to i32
  store i32 %25, ptr %4, align 4, !tbaa !6
  br label %26

26:                                               ; preds = %12, %11
  call void @llvm.lifetime.end.p0(i64 4, ptr nonnull %8) #9
  ret void
}